target datalayout = "e-m:e-p270:32:32-p271:32:32-p272:64:64-i64:64-i128:128-f80:128-n8:16:32:64-S128"
target triple = "x86_64-pc-linux-gnu"

%struct.subframe_stats_t = type { [65535 x %struct.pair_t], i32, i32, i32, double, double, double, double, double }
%struct.pair_t = type { i32, i32 }

@.str.16 = private unnamed_addr constant [2 x i8] c"w\00", align 1
@stderr = external global ptr, align 8
@.str.17 = private unnamed_addr constant [22 x i8] c"ERROR opening %s: %s\0A\00", align 1
@.str.19 = private unnamed_addr constant [7 x i8] c"%d %u\0A\00", align 1
@.str.20 = private unnamed_addr constant [3 x i8] c"e\0A\00", align 1
@.str.21 = private unnamed_addr constant [9 x i8] c"%f %f\0Ae\0A\00", align 1
@.str.22 = private unnamed_addr constant [15 x i8] c"%f %f\0A%f %f\0Ae\0A\00", align 1
@.str.23 = private unnamed_addr constant [23 x i8] c"pause -1 'waiting...'\0A\00", align 1

; Function Attrs: nounwind sspstrong uwtable
define internal i32 @dump_stats(ptr noundef %0, ptr noundef %1) #0 {
  %3 = alloca i32, align 4
  %4 = alloca ptr, align 8
  %5 = alloca ptr, align 8
  %6 = alloca ptr, align 8
  %7 = alloca i32, align 4
  %8 = alloca double, align 8
  %9 = alloca double, align 8
  %10 = alloca double, align 8
  %11 = alloca double, align 8
  %12 = alloca double, align 8
  %13 = alloca double, align 8
  %14 = alloca double, align 8
  %15 = alloca double, align 8
  %16 = alloca i32, align 4
  store ptr %0, ptr %4, align 8, !tbaa !9
  store ptr %1, ptr %5, align 8, !tbaa !31
  call void @llvm.lifetime.start.p0(i64 8, ptr %6) #6
  call void @llvm.lifetime.start.p0(i64 4, ptr %7) #6
  call void @llvm.lifetime.start.p0(i64 8, ptr %8) #6
  %17 = load ptr, ptr %4, align 8, !tbaa !9
  %18 = getelementptr inbounds nuw %struct.subframe_stats_t, ptr %17, i32 0, i32 7
  %19 = load double, ptr %18, align 8, !tbaa !57
  store double %19, ptr %8, align 8, !tbaa !55
  call void @llvm.lifetime.start.p0(i64 8, ptr %9) #6
  %20 = load ptr, ptr %4, align 8, !tbaa !9
  %21 = getelementptr inbounds nuw %struct.subframe_stats_t, ptr %20, i32 0, i32 8
  %22 = load double, ptr %21, align 8, !tbaa !59
  store double %22, ptr %9, align 8, !tbaa !55
  call void @llvm.lifetime.start.p0(i64 8, ptr %10) #6
  %23 = load double, ptr %9, align 8, !tbaa !55
  %24 = fmul double %23, 2.000000e+00
  store double %24, ptr %10, align 8, !tbaa !55
  call void @llvm.lifetime.start.p0(i64 8, ptr %11) #6
  %25 = load double, ptr %9, align 8, !tbaa !55
  %26 = fmul double %25, 3.000000e+00
  store double %26, ptr %11, align 8, !tbaa !55
  call void @llvm.lifetime.start.p0(i64 8, ptr %12) #6
  %27 = load double, ptr %9, align 8, !tbaa !55
  %28 = fmul double %27, 4.000000e+00
  store double %28, ptr %12, align 8, !tbaa !55
  call void @llvm.lifetime.start.p0(i64 8, ptr %13) #6
  %29 = load double, ptr %9, align 8, !tbaa !55
  %30 = fmul double %29, 5.000000e+00
  store double %30, ptr %13, align 8, !tbaa !55
  call void @llvm.lifetime.start.p0(i64 8, ptr %14) #6
  %31 = load double, ptr %9, align 8, !tbaa !55
  %32 = fmul double %31, 6.000000e+00
  store double %32, ptr %14, align 8, !tbaa !55
  call void @llvm.lifetime.start.p0(i64 8, ptr %15) #6
  %33 = load ptr, ptr %4, align 8, !tbaa !9
  %34 = getelementptr inbounds nuw %struct.subframe_stats_t, ptr %33, i32 0, i32 0
  %35 = load ptr, ptr %4, align 8, !tbaa !9
  %36 = getelementptr inbounds nuw %struct.subframe_stats_t, ptr %35, i32 0, i32 1
  %37 = load i32, ptr %36, align 8, !tbaa !11
  %38 = sext i32 %37 to i64
  %39 = getelementptr inbounds [65535 x %struct.pair_t], ptr %34, i64 0, i64 %38
  %40 = getelementptr inbounds nuw %struct.pair_t, ptr %39, i32 0, i32 1
  %41 = load i32, ptr %40, align 4, !tbaa !4
  %42 = uitofp i32 %41 to double
  store double %42, ptr %15, align 8, !tbaa !55
  %43 = load ptr, ptr %5, align 8, !tbaa !31
  %44 = call noalias ptr @fopen64(ptr noundef %43, ptr noundef @.str.16)
  store ptr %44, ptr %6, align 8, !tbaa !21
  %45 = load ptr, ptr %6, align 8, !tbaa !21
  %46 = icmp eq ptr null, %45
  br i1 %46, label %47, label %54

47:                                               ; preds = %2
  %48 = load ptr, ptr @stderr, align 8, !tbaa !21
  %49 = load ptr, ptr %5, align 8, !tbaa !31
  %50 = call ptr @__errno_location() #7
  %51 = load i32, ptr %50, align 4, !tbaa !18
  %52 = call ptr @strerror(i32 noundef %51) #6
  %53 = call i32 (ptr, i32, ptr, ...) @__fprintf_chk(ptr noundef %48, i32 noundef 1, ptr noundef @.str.17, ptr noundef %49, ptr noundef %52)
  store i32 0, ptr %3, align 4
  store i32 1, ptr %16, align 4
  br label %168

54:                                               ; preds = %2
  %55 = load ptr, ptr %6, align 8, !tbaa !21
  %56 = call i32 (ptr, i32, ptr, ...) @__fprintf_chk(ptr noundef %55, i32 noundef 1, ptr noundef @.str.18)
  store i32 0, ptr %7, align 4, !tbaa !18
  br label %57

57:                                               ; preds = %80, %54
  %58 = load i32, ptr %7, align 4, !tbaa !18
  %59 = load ptr, ptr %4, align 8, !tbaa !9
  %60 = getelementptr inbounds nuw %struct.subframe_stats_t, ptr %59, i32 0, i32 2
  %61 = load i32, ptr %60, align 4, !tbaa !14
  %62 = icmp ult i32 %58, %61
  br i1 %62, label %63, label %83

63:                                               ; preds = %57
  %64 = load ptr, ptr %6, align 8, !tbaa !21
  %65 = load ptr, ptr %4, align 8, !tbaa !9
  %66 = getelementptr inbounds nuw %struct.subframe_stats_t, ptr %65, i32 0, i32 0
  %67 = load i32, ptr %7, align 4, !tbaa !18
  %68 = zext i32 %67 to i64
  %69 = getelementptr inbounds nuw [65535 x %struct.pair_t], ptr %66, i64 0, i64 %68
  %70 = getelementptr inbounds nuw %struct.pair_t, ptr %69, i32 0, i32 0
  %71 = load i32, ptr %70, align 8, !tbaa !44
  %72 = load ptr, ptr %4, align 8, !tbaa !9
  %73 = getelementptr inbounds nuw %struct.subframe_stats_t, ptr %72, i32 0, i32 0
  %74 = load i32, ptr %7, align 4, !tbaa !18
  %75 = zext i32 %74 to i64
  %76 = getelementptr inbounds nuw [65535 x %struct.pair_t], ptr %73, i64 0, i64 %75
  %77 = getelementptr inbounds nuw %struct.pair_t, ptr %76, i32 0, i32 1
  %78 = load i32, ptr %77, align 4, !tbaa !4
  %79 = call i32 (ptr, i32, ptr, ...) @__fprintf_chk(ptr noundef %64, i32 noundef 1, ptr noundef @.str.19, i32 noundef %71, i32 noundef %78)
  br label %80

80:                                               ; preds = %63
  %81 = load i32, ptr %7, align 4, !tbaa !18
  %82 = add i32 %81, 1
  store i32 %82, ptr %7, align 4, !tbaa !18
  br label %57, !llvm.loop !60

83:                                               ; preds = %57
  %84 = load ptr, ptr %6, align 8, !tbaa !21
  %85 = call i32 (ptr, i32, ptr, ...) @__fprintf_chk(ptr noundef %84, i32 noundef 1, ptr noundef @.str.20)
  %86 = load ptr, ptr %6, align 8, !tbaa !21
  %87 = load ptr, ptr %4, align 8, !tbaa !9
  %88 = getelementptr inbounds nuw %struct.subframe_stats_t, ptr %87, i32 0, i32 7
  %89 = load double, ptr %88, align 8, !tbaa !57
  %90 = load double, ptr %15, align 8, !tbaa !55
  %91 = call i32 (ptr, i32, ptr, ...) @__fprintf_chk(ptr noundef %86, i32 noundef 1, ptr noundef @.str.21, double noundef %89, double noundef %90)
  %92 = load ptr, ptr %6, align 8, !tbaa !21
  %93 = load double, ptr %8, align 8, !tbaa !55
  %94 = load double, ptr %9, align 8, !tbaa !55
  %95 = fsub double %93, %94
  %96 = load double, ptr %15, align 8, !tbaa !55
  %97 = fmul double %96, 8.000000e-01
  %98 = load double, ptr %8, align 8, !tbaa !55
  %99 = load double, ptr %9, align 8, !tbaa !55
  %100 = fadd double %98, %99
  %101 = load double, ptr %15, align 8, !tbaa !55
  %102 = fmul double %101, 8.000000e-01
  %103 = call i32 (ptr, i32, ptr, ...) @__fprintf_chk(ptr noundef %92, i32 noundef 1, ptr noundef @.str.22, double noundef %95, double noundef %97, double noundef %100, double noundef %102)
  %104 = load ptr, ptr %6, align 8, !tbaa !21
  %105 = load double, ptr %8, align 8, !tbaa !55
  %106 = load double, ptr %10, align 8, !tbaa !55
  %107 = fsub double %105, %106
  %108 = load double, ptr %15, align 8, !tbaa !55
  %109 = fmul double %108, 0x3FE6666666666666
  %110 = load double, ptr %8, align 8, !tbaa !55
  %111 = load double, ptr %10, align 8, !tbaa !55
  %112 = fadd double %110, %111
  %113 = load double, ptr %15, align 8, !tbaa !55
  %114 = fmul double %113, 0x3FE6666666666666
  %115 = call i32 (ptr, i32, ptr, ...) @__fprintf_chk(ptr noundef %104, i32 noundef 1, ptr noundef @.str.22, double noundef %107, double noundef %109, double noundef %112, double noundef %114)
  %116 = load ptr, ptr %6, align 8, !tbaa !21
  %117 = load double, ptr %8, align 8, !tbaa !55
  %118 = load double, ptr %11, align 8, !tbaa !55
  %119 = fsub double %117, %118
  %120 = load double, ptr %15, align 8, !tbaa !55
  %121 = fmul double %120, 6.000000e-01
  %122 = load double, ptr %8, align 8, !tbaa !55
  %123 = load double, ptr %11, align 8, !tbaa !55
  %124 = fadd double %122, %123
  %125 = load double, ptr %15, align 8, !tbaa !55
  %126 = fmul double %125, 6.000000e-01
  %127 = call i32 (ptr, i32, ptr, ...) @__fprintf_chk(ptr noundef %116, i32 noundef 1, ptr noundef @.str.22, double noundef %119, double noundef %121, double noundef %124, double noundef %126)
  %128 = load ptr, ptr %6, align 8, !tbaa !21
  %129 = load double, ptr %8, align 8, !tbaa !55
  %130 = load double, ptr %12, align 8, !tbaa !55
  %131 = fsub double %129, %130
  %132 = load double, ptr %15, align 8, !tbaa !55
  %133 = fmul double %132, 5.000000e-01
  %134 = load double, ptr %8, align 8, !tbaa !55
  %135 = load double, ptr %12, align 8, !tbaa !55
  %136 = fadd double %134, %135
  %137 = load double, ptr %15, align 8, !tbaa !55
  %138 = fmul double %137, 5.000000e-01
  %139 = call i32 (ptr, i32, ptr, ...) @__fprintf_chk(ptr noundef %128, i32 noundef 1, ptr noundef @.str.22, double noundef %131, double noundef %133, double noundef %136, double noundef %138)
  %140 = load ptr, ptr %6, align 8, !tbaa !21
  %141 = load double, ptr %8, align 8, !tbaa !55
  %142 = load double, ptr %13, align 8, !tbaa !55
  %143 = fsub double %141, %142
  %144 = load double, ptr %15, align 8, !tbaa !55
  %145 = fmul double %144, 4.000000e-01
  %146 = load double, ptr %8, align 8, !tbaa !55
  %147 = load double, ptr %13, align 8, !tbaa !55
  %148 = fadd double %146, %147
  %149 = load double, ptr %15, align 8, !tbaa !55
  %150 = fmul double %149, 4.000000e-01
  %151 = call i32 (ptr, i32, ptr, ...) @__fprintf_chk(ptr noundef %140, i32 noundef 1, ptr noundef @.str.22, double noundef %143, double noundef %145, double noundef %148, double noundef %150)
  %152 = load ptr, ptr %6, align 8, !tbaa !21
  %153 = load double, ptr %8, align 8, !tbaa !55
  %154 = load double, ptr %14, align 8, !tbaa !55
  %155 = fsub double %153, %154
  %156 = load double, ptr %15, align 8, !tbaa !55
  %157 = fmul double %156, 3.000000e-01
  %158 = load double, ptr %8, align 8, !tbaa !55
  %159 = load double, ptr %14, align 8, !tbaa !55
  %160 = fadd double %158, %159
  %161 = load double, ptr %15, align 8, !tbaa !55
  %162 = fmul double %161, 3.000000e-01
  %163 = call i32 (ptr, i32, ptr, ...) @__fprintf_chk(ptr noundef %152, i32 noundef 1, ptr noundef @.str.22, double noundef %155, double noundef %157, double noundef %160, double noundef %162)
  %164 = load ptr, ptr %6, align 8, !tbaa !21
  %165 = call i32 (ptr, i32, ptr, ...) @__fprintf_chk(ptr noundef %164, i32 noundef 1, ptr noundef @.str.23)
  %166 = load ptr, ptr %6, align 8, !tbaa !21
  %167 = call i32 @fclose(ptr noundef %166)
  store i32 1, ptr %3, align 4
  store i32 1, ptr %16, align 4
  br label %168

168:                                              ; preds = %83, %47
  call void @llvm.lifetime.end.p0(i64 8, ptr %15) #6
  call void @llvm.lifetime.end.p0(i64 8, ptr %14) #6
  call void @llvm.lifetime.end.p0(i64 8, ptr %13) #6
  call void @llvm.lifetime.end.p0(i64 8, ptr %12) #6
  call void @llvm.lifetime.end.p0(i64 8, ptr %11) #6
  call void @llvm.lifetime.end.p0(i64 8, ptr %10) #6
  call void @llvm.lifetime.end.p0(i64 8, ptr %9) #6
  call void @llvm.lifetime.end.p0(i64 8, ptr %8) #6
  call void @llvm.lifetime.end.p0(i64 4, ptr %7) #6
  call void @llvm.lifetime.end.p0(i64 8, ptr %6) #6
  %169 = load i32, ptr %3, align 4
  ret i32 %169
}