; Function Attrs: nounwind sspstrong uwtable
define internal fastcc void @dump_stats(ptr noundef readonly captures(none) %0, ptr noundef %1) unnamed_addr #1 {
  %3 = getelementptr inbounds nuw i8, ptr %0, i64 524320
  %4 = load double, ptr %3, align 8, !tbaa !50
  %5 = getelementptr inbounds nuw i8, ptr %0, i64 524328
  %6 = load double, ptr %5, align 8, !tbaa !52
  %7 = fmul double %6, 2.000000e+00
  %8 = fmul double %6, 3.000000e+00
  %9 = fmul double %6, 4.000000e+00
  %10 = fmul double %6, 5.000000e+00
  %11 = fmul double %6, 6.000000e+00
  %12 = getelementptr inbounds nuw i8, ptr %0, i64 524280
  %13 = load i32, ptr %12, align 8, !tbaa !4
  %14 = sext i32 %13 to i64
  %15 = getelementptr inbounds [65535 x %struct.pair_t], ptr %0, i64 0, i64 %14, i32 1
  %16 = load i32, ptr %15, align 4, !tbaa !43
  %17 = uitofp i32 %16 to double
  %18 = tail call noalias ptr @fopen64(ptr noundef %1, ptr noundef nonnull @.str.16)
  %19 = icmp eq ptr %18, null
  br i1 %19, label %20, label %26

20:                                               ; preds = %2
  %21 = load ptr, ptr @stderr, align 8, !tbaa !54
  %22 = tail call ptr @__errno_location() #11
  %23 = load i32, ptr %22, align 4, !tbaa !32
  %24 = tail call ptr @strerror(i32 noundef %23) #10
  %25 = tail call i32 (ptr, i32, ptr, ...) @__fprintf_chk(ptr noundef %21, i32 noundef 1, ptr noundef nonnull @.str.17, ptr noundef %1, ptr noundef %24) #10
  br label %67

26:                                               ; preds = %2
  %27 = tail call i32 (ptr, i32, ptr, ...) @__fprintf_chk(ptr noundef nonnull %18, i32 noundef 1, ptr noundef nonnull @.str.18) #10
  %28 = getelementptr inbounds nuw i8, ptr %0, i64 524284
  %29 = load i32, ptr %28, align 4, !tbaa !10
  %.not = icmp eq i32 %29, 0
  br i1 %.not, label %._crit_edge, label %.lr.ph

.lr.ph:                                           ; preds = %26, %.lr.ph
  %indvars.iv = phi i64 [ %indvars.iv.next, %.lr.ph ], [ 0, %26 ]
  %30 = getelementptr inbounds nuw [65535 x %struct.pair_t], ptr %0, i64 0, i64 %indvars.iv
  %31 = load i32, ptr %30, align 8, !tbaa !41
  %32 = getelementptr inbounds nuw i8, ptr %30, i64 4
  %33 = load i32, ptr %32, align 4, !tbaa !43
  %34 = tail call i32 (ptr, i32, ptr, ...) @__fprintf_chk(ptr noundef nonnull %18, i32 noundef 1, ptr noundef nonnull @.str.19, i32 noundef %31, i32 noundef %33) #10
  %indvars.iv.next = add nuw nsw i64 %indvars.iv, 1
  %35 = load i32, ptr %28, align 4, !tbaa !10
  %36 = zext i32 %35 to i64
  %37 = icmp samesign ult i64 %indvars.iv.next, %36
  br i1 %37, label %.lr.ph, label %._crit_edge, !llvm.loop !56

._crit_edge:                                      ; preds = %.lr.ph, %26
  %38 = tail call i32 (ptr, i32, ptr, ...) @__fprintf_chk(ptr noundef nonnull %18, i32 noundef 1, ptr noundef nonnull @.str.20) #10
  %39 = load double, ptr %3, align 8, !tbaa !50
  %40 = tail call i32 (ptr, i32, ptr, ...) @__fprintf_chk(ptr noundef nonnull %18, i32 noundef 1, ptr noundef nonnull @.str.21, double noundef %39, double noundef %17) #10
  %41 = fsub double %4, %6
  %42 = fmul double %17, 8.000000e-01
  %43 = fadd double %4, %6
  %44 = tail call i32 (ptr, i32, ptr, ...) @__fprintf_chk(ptr noundef nonnull %18, i32 noundef 1, ptr noundef nonnull @.str.22, double noundef %41, double noundef %42, double noundef %43, double noundef %42) #10
  %45 = fsub double %4, %7
  %46 = fmul double %17, 0x3FE6666666666666
  %47 = fadd double %4, %7
  %48 = tail call i32 (ptr, i32, ptr, ...) @__fprintf_chk(ptr noundef nonnull %18, i32 noundef 1, ptr noundef nonnull @.str.22, double noundef %45, double noundef %46, double noundef %47, double noundef %46) #10
  %49 = fsub double %4, %8
  %50 = fmul double %17, 6.000000e-01
  %51 = fadd double %4, %8
  %52 = tail call i32 (ptr, i32, ptr, ...) @__fprintf_chk(ptr noundef nonnull %18, i32 noundef 1, ptr noundef nonnull @.str.22, double noundef %49, double noundef %50, double noundef %51, double noundef %50) #10
  %53 = fsub double %4, %9
  %54 = fmul double %17, 5.000000e-01
  %55 = fadd double %4, %9
  %56 = tail call i32 (ptr, i32, ptr, ...) @__fprintf_chk(ptr noundef nonnull %18, i32 noundef 1, ptr noundef nonnull @.str.22, double noundef %53, double noundef %54, double noundef %55, double noundef %54) #10
  %57 = fsub double %4, %10
  %58 = fmul double %17, 4.000000e-01
  %59 = fadd double %4, %10
  %60 = tail call i32 (ptr, i32, ptr, ...) @__fprintf_chk(ptr noundef nonnull %18, i32 noundef 1, ptr noundef nonnull @.str.22, double noundef %57, double noundef %58, double noundef %59, double noundef %58) #10
  %61 = fsub double %4, %11
  %62 = fmul double %17, 3.000000e-01
  %63 = fadd double %4, %11
  %64 = tail call i32 (ptr, i32, ptr, ...) @__fprintf_chk(ptr noundef nonnull %18, i32 noundef 1, ptr noundef nonnull @.str.22, double noundef %61, double noundef %62, double noundef %63, double noundef %62) #10
  %65 = tail call i32 (ptr, i32, ptr, ...) @__fprintf_chk(ptr noundef nonnull %18, i32 noundef 1, ptr noundef nonnull @.str.23) #10
  %66 = tail call i32 @fclose(ptr noundef nonnull %18)
  br label %67

67:                                               ; preds = %._crit_edge, %20
  ret void
}